target datalayout = "e-m:e-p270:32:32-p271:32:32-p272:64:64-i64:64-i128:128-f80:128-n8:16:32:64-S128"
target triple = "x86_64-pc-linux-gnu"

%struct.RClass = type { %struct.RBasic, i64, ptr }
%struct.RBasic = type { i64, i64 }
%struct.rb_method_entry_struct = type { i64, i64, ptr, i64, i64 }
%struct.rb_method_definition_struct = type { i64, %union.anon.15, i64, i64 }
%union.anon.15 = type { %struct.rb_method_cfunc_struct }
%struct.rb_method_cfunc_struct = type { ptr, ptr, i32 }
%struct.rb_method_refined_struct = type { ptr }

@.str.29 = private unnamed_addr constant [11 x i8] c"../class.c\00", align 1

; Function Attrs: inlinehint nounwind sspstrong willreturn memory(none) uwtable
define internal zeroext i1 @RB_IMMEDIATE_P(i64 noundef %0) #1 {
  %2 = alloca i64, align 8
  store i64 %0, ptr %2, align 8, !tbaa !7
  %3 = load i64, ptr %2, align 8, !tbaa !7
  %4 = and i64 %3, 7
  %5 = icmp ne i64 %4, 0
  ret i1 %5
}

; Function Attrs: inlinehint nounwind sspstrong willreturn memory(none) uwtable
define internal zeroext i1 @RB_SPECIAL_CONST_P(i64 noundef %0) #1 {
  %2 = alloca i64, align 8
  store i64 %0, ptr %2, align 8, !tbaa !7
  %3 = load i64, ptr %2, align 8, !tbaa !7
  %4 = icmp eq i64 %3, 0
  br i1 %4, label %8, label %5

5:                                                ; preds = %1
  %6 = load i64, ptr %2, align 8, !tbaa !7
  %7 = call zeroext i1 @RB_IMMEDIATE_P(i64 noundef %6) #22
  br label %8

8:                                                ; preds = %5, %1
  %9 = phi i1 [ true, %1 ], [ %7, %5 ]
  ret i1 %9
}

; Function Attrs: inlinehint nounwind sspstrong uwtable
define internal i64 @rb_obj_written(i64 noundef %0, i64 noundef %1, i64 noundef %2, ptr noundef %3, i32 noundef %4) #4 {
  %6 = alloca i64, align 8
  %7 = alloca i64, align 8
  %8 = alloca i64, align 8
  %9 = alloca ptr, align 8
  %10 = alloca i32, align 4
  store i64 %0, ptr %6, align 8, !tbaa !7
  store i64 %1, ptr %7, align 8, !tbaa !7
  store i64 %2, ptr %8, align 8, !tbaa !7
  store ptr %3, ptr %9, align 8, !tbaa !64
  store i32 %4, ptr %10, align 4, !tbaa !39
  %11 = load i64, ptr %8, align 8, !tbaa !7
  %12 = call zeroext i1 @RB_SPECIAL_CONST_P(i64 noundef %11) #22
  br i1 %12, label %16, label %13

13:                                               ; preds = %5
  %14 = load i64, ptr %6, align 8, !tbaa !7
  %15 = load i64, ptr %8, align 8, !tbaa !7
  call void @rb_gc_writebarrier(i64 noundef %14, i64 noundef %15)
  br label %16

16:                                               ; preds = %13, %5
  %17 = load i64, ptr %6, align 8, !tbaa !7
  ret i64 %17
}

; Function Attrs: inlinehint nounwind sspstrong uwtable
define internal i64 @rb_obj_write(i64 noundef %0, ptr noundef %1, i64 noundef %2, ptr noundef %3, i32 noundef %4) #4 {
  %6 = alloca i64, align 8
  %7 = alloca ptr, align 8
  %8 = alloca i64, align 8
  %9 = alloca ptr, align 8
  %10 = alloca i32, align 4
  store i64 %0, ptr %6, align 8, !tbaa !7
  store ptr %1, ptr %7, align 8, !tbaa !40
  store i64 %2, ptr %8, align 8, !tbaa !7
  store ptr %3, ptr %9, align 8, !tbaa !64
  store i32 %4, ptr %10, align 4, !tbaa !39
  %11 = load i64, ptr %8, align 8, !tbaa !7
  %12 = load ptr, ptr %7, align 8, !tbaa !40
  store i64 %11, ptr %12, align 8, !tbaa !7
  %13 = load i64, ptr %6, align 8, !tbaa !7
  %14 = load i64, ptr %8, align 8, !tbaa !7
  %15 = load ptr, ptr %9, align 8, !tbaa !64
  %16 = load i32, ptr %10, align 4, !tbaa !39
  %17 = call i64 @rb_obj_written(i64 noundef %13, i64 noundef 36, i64 noundef %14, ptr noundef %15, i32 noundef %16)
  %18 = load i64, ptr %6, align 8, !tbaa !7
  ret i64 %18
}

; Function Attrs: nounwind sspstrong uwtable
define internal i32 @move_refined_method(i64 noundef %0, i64 noundef %1, ptr noundef %2) #0 {
  %4 = alloca i32, align 4
  %5 = alloca i64, align 8
  %6 = alloca i64, align 8
  %7 = alloca ptr, align 8
  %8 = alloca ptr, align 8
  %9 = alloca i64, align 8
  %10 = alloca ptr, align 8
  %11 = alloca ptr, align 8
  %12 = alloca ptr, align 8
  %13 = alloca i32, align 4
  store i64 %0, ptr %5, align 8, !tbaa !7
  store i64 %1, ptr %6, align 8, !tbaa !7
  store ptr %2, ptr %7, align 8, !tbaa !29
  call void @llvm.lifetime.start.p0(i64 8, ptr %8) #23
  %14 = load i64, ptr %6, align 8, !tbaa !7
  %15 = inttoptr i64 %14 to ptr
  store ptr %15, ptr %8, align 8, !tbaa !96
  %16 = load ptr, ptr %8, align 8, !tbaa !96
  %17 = getelementptr inbounds nuw %struct.rb_method_entry_struct, ptr %16, i32 0, i32 2
  %18 = load ptr, ptr %17, align 8, !tbaa !100
  %19 = load i64, ptr %18, align 8
  %20 = and i64 %19, 15
  %21 = trunc i64 %20 to i32
  %22 = icmp eq i32 %21, 11
  br i1 %22, label %23, label %66

23:                                               ; preds = %3
  call void @llvm.lifetime.start.p0(i64 8, ptr %9) #23
  %24 = load ptr, ptr %7, align 8, !tbaa !29
  %25 = ptrtoint ptr %24 to i64
  store i64 %25, ptr %9, align 8, !tbaa !7
  call void @llvm.lifetime.start.p0(i64 8, ptr %10) #23
  %26 = load i64, ptr %9, align 8, !tbaa !7
  %27 = inttoptr i64 %26 to ptr
  %28 = getelementptr inbounds nuw %struct.RClass, ptr %27, i32 0, i32 2
  %29 = load ptr, ptr %28, align 8, !tbaa !34
  store ptr %29, ptr %10, align 8, !tbaa !52
  %30 = load ptr, ptr %8, align 8, !tbaa !96
  %31 = getelementptr inbounds nuw %struct.rb_method_entry_struct, ptr %30, i32 0, i32 2
  %32 = load ptr, ptr %31, align 8, !tbaa !100
  %33 = getelementptr inbounds nuw %struct.rb_method_definition_struct, ptr %32, i32 0, i32 1
  %34 = getelementptr inbounds nuw %struct.rb_method_refined_struct, ptr %33, i32 0, i32 0
  %35 = load ptr, ptr %34, align 8, !tbaa !50
  %36 = icmp ne ptr %35, null
  br i1 %36, label %37, label %60

37:                                               ; preds = %23
  call void @llvm.lifetime.start.p0(i64 8, ptr %11) #23
  %38 = load ptr, ptr %8, align 8, !tbaa !96
  %39 = getelementptr inbounds nuw %struct.rb_method_entry_struct, ptr %38, i32 0, i32 2
  %40 = load ptr, ptr %39, align 8, !tbaa !100
  %41 = getelementptr inbounds nuw %struct.rb_method_definition_struct, ptr %40, i32 0, i32 1
  %42 = getelementptr inbounds nuw %struct.rb_method_refined_struct, ptr %41, i32 0, i32 0
  %43 = load ptr, ptr %42, align 8, !tbaa !50
  store ptr %43, ptr %11, align 8, !tbaa !96
  call void @llvm.lifetime.start.p0(i64 8, ptr %12) #23
  %44 = load ptr, ptr %8, align 8, !tbaa !96
  %45 = ptrtoint ptr %44 to i64
  %46 = load ptr, ptr %8, align 8, !tbaa !96
  %47 = getelementptr inbounds nuw %struct.rb_method_entry_struct, ptr %46, i32 0, i32 2
  %48 = load ptr, ptr %47, align 8, !tbaa !100
  %49 = getelementptr inbounds nuw %struct.rb_method_definition_struct, ptr %48, i32 0, i32 1
  %50 = getelementptr inbounds nuw %struct.rb_method_refined_struct, ptr %49, i32 0, i32 0
  %51 = call i64 @rb_obj_write(i64 noundef %45, ptr noundef %50, i64 noundef 0, ptr noundef @.str.29, i32 noundef 1390)
  %52 = load ptr, ptr %8, align 8, !tbaa !96
  %53 = call ptr @rb_method_entry_clone(ptr noundef %52)
  store ptr %53, ptr %12, align 8, !tbaa !96
  %54 = load i64, ptr %9, align 8, !tbaa !7
  %55 = load ptr, ptr %10, align 8, !tbaa !52
  %56 = load i64, ptr %5, align 8, !tbaa !7
  %57 = load ptr, ptr %12, align 8, !tbaa !96
  call void @rb_method_table_insert(i64 noundef %54, ptr noundef %55, i64 noundef %56, ptr noundef %57)
  %58 = load ptr, ptr %8, align 8, !tbaa !96
  %59 = load ptr, ptr %11, align 8, !tbaa !96
  call void @rb_method_entry_copy(ptr noundef %58, ptr noundef %59)
  store i32 0, ptr %4, align 4
  store i32 1, ptr %13, align 4
  call void @llvm.lifetime.end.p0(i64 8, ptr %12) #23
  call void @llvm.lifetime.end.p0(i64 8, ptr %11) #23
  br label %65

60:                                               ; preds = %23
  %61 = load i64, ptr %9, align 8, !tbaa !7
  %62 = load ptr, ptr %10, align 8, !tbaa !52
  %63 = load i64, ptr %5, align 8, !tbaa !7
  %64 = load ptr, ptr %8, align 8, !tbaa !96
  call void @rb_method_table_insert(i64 noundef %61, ptr noundef %62, i64 noundef %63, ptr noundef %64)
  store i32 2, ptr %4, align 4
  store i32 1, ptr %13, align 4
  br label %65

65:                                               ; preds = %60, %37
  call void @llvm.lifetime.end.p0(i64 8, ptr %10) #23
  call void @llvm.lifetime.end.p0(i64 8, ptr %9) #23
  br label %67

66:                                               ; preds = %3
  store i32 0, ptr %4, align 4
  store i32 1, ptr %13, align 4
  br label %67

67:                                               ; preds = %66, %65
  call void @llvm.lifetime.end.p0(i64 8, ptr %8) #23
  %68 = load i32, ptr %4, align 4
  ret i32 %68
}