; Function Attrs: nounwind sspstrong uwtable
define internal range(i32 0, 3) i32 @move_refined_method(i64 noundef %0, i64 noundef %1, ptr noundef %2) #0 {
  %4 = inttoptr i64 %1 to ptr
  %5 = getelementptr inbounds nuw i8, ptr %4, i64 16
  %6 = load ptr, ptr %5, align 8, !tbaa !57
  %7 = load i64, ptr %6, align 8
  %8 = and i64 %7, 15
  %9 = icmp eq i64 %8, 11
  br i1 %9, label %10, label %19

10:                                               ; preds = %3
  %11 = ptrtoint ptr %2 to i64
  %12 = getelementptr inbounds nuw i8, ptr %2, i64 24
  %13 = load ptr, ptr %12, align 8, !tbaa !33
  %14 = getelementptr inbounds nuw i8, ptr %6, i64 8
  %15 = load ptr, ptr %14, align 8, !tbaa !32
  %.not = icmp eq ptr %15, null
  br i1 %.not, label %18, label %16

16:                                               ; preds = %10
  store i64 0, ptr %14, align 8, !tbaa !29
  %17 = tail call ptr @rb_method_entry_clone(ptr noundef nonnull %4) #19
  tail call void @rb_method_table_insert(i64 noundef %11, ptr noundef %13, i64 noundef %0, ptr noundef %17) #19
  tail call void @rb_method_entry_copy(ptr noundef nonnull %4, ptr noundef nonnull %15) #19
  br label %19

18:                                               ; preds = %10
  tail call void @rb_method_table_insert(i64 noundef %11, ptr noundef %13, i64 noundef %0, ptr noundef nonnull %4) #19
  br label %19

19:                                               ; preds = %3, %16, %18
  %.1 = phi i32 [ 0, %16 ], [ 2, %18 ], [ 0, %3 ]
  ret i32 %.1
}